; Function Attrs: mustprogress uwtable
define noundef i32 @_ZN4base7RandIntEii(i32 noundef %0, i32 noundef %1) local_unnamed_addr #0 personality ptr @__gxx_personality_v0 {
  %3 = sext i32 %1 to i64
  %4 = sext i32 %0 to i64
  %5 = sub nsw i64 %3, %4
  %6 = add nsw i64 %5, 1
  %7 = urem i64 -1, %6
  %8 = sub nuw i64 -2, %7
  br label %9

9:                                                ; preds = %9, %2
  %10 = tail call noundef i64 @_ZN4base10RandUint64Ev()
  %11 = icmp ugt i64 %10, %8
  br i1 %11, label %9, label %12, !llvm.loop !3

12:                                               ; preds = %9
  %13 = urem i64 %10, %6
  %14 = trunc i64 %13 to i32
  %15 = add i32 %0, %14
  ret i32 %15
}